; Function Attrs: nounwind uwtable
define dso_local ptr @ReorderBufferGetTupleBuf(ptr noundef readonly captures(none) %0, i64 noundef %1) local_unnamed_addr #0 {
  %3 = getelementptr inbounds nuw i8, ptr %0, i64 264
  %4 = load ptr, ptr %3, align 8
  %5 = add i64 %1, 47
  %6 = tail call ptr @MemoryContextAlloc(ptr noundef %4, i64 noundef %5) #19
  %7 = getelementptr inbounds nuw i8, ptr %6, i64 24
  %8 = getelementptr inbounds nuw i8, ptr %6, i64 16
  store ptr %7, ptr %8, align 8
  ret ptr %6
}